; ModuleID = '22/874.c'
source_filename = "22/874.c"
target datalayout = "e-m:e-p270:32:32-p271:32:32-p272:64:64-i64:64-f80:128-n8:16:32:64-S128"
target triple = "x86_64-pc-linux-gnu"

@.str = private unnamed_addr constant [3 x i8] c"%d\00", align 1
@.str.1 = private unnamed_addr constant [4 x i8] c",%d\00", align 1
@.str.2 = private unnamed_addr constant [3 x i8] c"No\00", align 1

; Function Attrs: noinline nounwind uwtable
define dso_local i32 @main() #0 {
  %1 = alloca i32, align 4
  %2 = alloca i32, align 4
  %3 = alloca i32, align 4
  %4 = alloca i32, align 4
  %5 = alloca i32, align 4
  %6 = alloca i32, align 4
  %7 = alloca i32, align 4
  store i32 0, i32* %1, align 4
  store i32 0, i32* %5, align 4
  store i32 0, i32* %6, align 4
  store i32 0, i32* %7, align 4
  %8 = call i32 (i8*, ...) @__isoc99_scanf(i8* getelementptr inbounds ([3 x i8], [3 x i8]* @.str, i64 0, i64 0), i32* %2)
  %9 = call i32 (i8*, ...) @__isoc99_scanf(i8* getelementptr inbounds ([4 x i8], [4 x i8]* @.str.1, i64 0, i64 0), i32* %4)
  %10 = icmp eq i32 %9, 10
  br i1 %10, label %11, label %13

11:                                               ; preds = %0
  %12 = call i32 (i8*, ...) @printf(i8* getelementptr inbounds ([3 x i8], [3 x i8]* @.str.2, i64 0, i64 0))
  br label %112

13:                                               ; preds = %0
  br label %14

14:                                               ; preds = %101, %13
  %15 = call i32 (i8*, ...) @__isoc99_scanf(i8* getelementptr inbounds ([4 x i8], [4 x i8]* @.str.1, i64 0, i64 0), i32* %3)
  %16 = icmp ne i32 %15, 0
  br i1 %16, label %17, label %103

17:                                               ; preds = %14
  store i32 0, i32* %6, align 4
  %18 = load i32, i32* %3, align 4
  store i32 %18, i32* %7, align 4
  %19 = load i32, i32* %2, align 4
  %20 = load i32, i32* %3, align 4
  %21 = icmp ne i32 %19, %20
  br i1 %21, label %30, label %22

22:                                               ; preds = %17
  %23 = load i32, i32* %2, align 4
  %24 = load i32, i32* %4, align 4
  %25 = icmp ne i32 %23, %24
  br i1 %25, label %30, label %26

26:                                               ; preds = %22
  %27 = load i32, i32* %3, align 4
  %28 = load i32, i32* %4, align 4
  %29 = icmp ne i32 %27, %28
  br i1 %29, label %30, label %31

30:                                               ; preds = %26, %22, %17
  store i32 1, i32* %5, align 4
  br label %31

31:                                               ; preds = %30, %26
  %32 = load i32, i32* %6, align 4
  %33 = load i32, i32* %2, align 4
  %34 = icmp sle i32 %32, %33
  br i1 %34, label %35, label %37

35:                                               ; preds = %31
  %36 = load i32, i32* %2, align 4
  store i32 %36, i32* %6, align 4
  br label %37

37:                                               ; preds = %35, %31
  %38 = load i32, i32* %6, align 4
  %39 = load i32, i32* %3, align 4
  %40 = icmp sle i32 %38, %39
  br i1 %40, label %41, label %43

41:                                               ; preds = %37
  %42 = load i32, i32* %3, align 4
  store i32 %42, i32* %6, align 4
  br label %43

43:                                               ; preds = %41, %37
  %44 = load i32, i32* %6, align 4
  %45 = load i32, i32* %4, align 4
  %46 = icmp sle i32 %44, %45
  br i1 %46, label %47, label %49

47:                                               ; preds = %43
  %48 = load i32, i32* %4, align 4
  store i32 %48, i32* %6, align 4
  br label %49

49:                                               ; preds = %47, %43
  %50 = load i32, i32* %7, align 4
  %51 = load i32, i32* %2, align 4
  %52 = icmp sge i32 %50, %51
  br i1 %52, label %53, label %55

53:                                               ; preds = %49
  %54 = load i32, i32* %2, align 4
  store i32 %54, i32* %7, align 4
  br label %55

55:                                               ; preds = %53, %49
  %56 = load i32, i32* %7, align 4
  %57 = load i32, i32* %3, align 4
  %58 = icmp sge i32 %56, %57
  br i1 %58, label %59, label %61

59:                                               ; preds = %55
  %60 = load i32, i32* %3, align 4
  store i32 %60, i32* %7, align 4
  br label %61

61:                                               ; preds = %59, %55
  %62 = load i32, i32* %7, align 4
  %63 = load i32, i32* %4, align 4
  %64 = icmp sge i32 %62, %63
  br i1 %64, label %65, label %67

65:                                               ; preds = %61
  %66 = load i32, i32* %4, align 4
  store i32 %66, i32* %7, align 4
  br label %67

67:                                               ; preds = %65, %61
  %68 = load i32, i32* %2, align 4
  %69 = load i32, i32* %7, align 4
  %70 = icmp sgt i32 %68, %69
  br i1 %70, label %71, label %77

71:                                               ; preds = %67
  %72 = load i32, i32* %2, align 4
  %73 = load i32, i32* %6, align 4
  %74 = icmp slt i32 %72, %73
  br i1 %74, label %75, label %77

75:                                               ; preds = %71
  %76 = load i32, i32* %2, align 4
  store i32 %76, i32* %4, align 4
  br label %101

77:                                               ; preds = %71, %67
  %78 = load i32, i32* %3, align 4
  %79 = load i32, i32* %7, align 4
  %80 = icmp sgt i32 %78, %79
  br i1 %80, label %81, label %87

81:                                               ; preds = %77
  %82 = load i32, i32* %3, align 4
  %83 = load i32, i32* %6, align 4
  %84 = icmp slt i32 %82, %83
  br i1 %84, label %85, label %87

85:                                               ; preds = %81
  %86 = load i32, i32* %3, align 4
  store i32 %86, i32* %4, align 4
  br label %100

87:                                               ; preds = %81, %77
  %88 = load i32, i32* %4, align 4
  %89 = load i32, i32* %7, align 4
  %90 = icmp sgt i32 %88, %89
  br i1 %90, label %91, label %97

91:                                               ; preds = %87
  %92 = load i32, i32* %4, align 4
  %93 = load i32, i32* %6, align 4
  %94 = icmp slt i32 %92, %93
  br i1 %94, label %95, label %97

95:                                               ; preds = %91
  %96 = load i32, i32* %4, align 4
  store i32 %96, i32* %4, align 4
  br label %99

97:                                               ; preds = %91, %87
  %98 = load i32, i32* %7, align 4
  store i32 %98, i32* %4, align 4
  br label %99

99:                                               ; preds = %97, %95
  br label %100

100:                                              ; preds = %99, %85
  br label %101

101:                                              ; preds = %100, %75
  %102 = load i32, i32* %6, align 4
  store i32 %102, i32* %2, align 4
  br label %14

103:                                              ; preds = %14
  %104 = load i32, i32* %5, align 4
  %105 = icmp eq i32 %104, 1
  br i1 %105, label %106, label %109

106:                                              ; preds = %103
  %107 = load i32, i32* %4, align 4
  %108 = call i32 (i8*, ...) @printf(i8* getelementptr inbounds ([3 x i8], [3 x i8]* @.str, i64 0, i64 0), i32 %107)
  br label %111

109:                                              ; preds = %103
  %110 = call i32 (i8*, ...) @printf(i8* getelementptr inbounds ([3 x i8], [3 x i8]* @.str.2, i64 0, i64 0))
  br label %111

111:                                              ; preds = %109, %106
  br label %112

112:                                              ; preds = %111, %11
  ret i32 0
}

declare dso_local i32 @__isoc99_scanf(i8*, ...) #1

declare dso_local i32 @printf(i8*, ...) #1


!llvm.module.flags = !{!0}
!llvm.ident = !{!1}

!0 = !{i32 1, !"wchar_size", i32 4}
!1 = !{!"clang version 10.0.0-4ubuntu1 "}
